target datalayout = "e-m:e-p270:32:32-p271:32:32-p272:64:64-i64:64-i128:128-f80:128-n8:16:32:64-S128"
target triple = "x86_64-pc-linux-gnu"

%struct.ExprEvalStep = type { i64, ptr, ptr, %union.anon }
%union.anon = type { %struct.anon.23 }
%struct.anon.23 = type { ptr, ptr, i32, i32, ptr, ptr }
%struct.ItemPointerData = type { %struct.BlockIdData, i16 }
%struct.BlockIdData = type { i16, i16 }
%struct.HeapTupleData = type { i32, %struct.ItemPointerData, i32, ptr }
%struct.anon.20 = type { ptr, ptr, ptr }

; Function Attrs: inlinehint nounwind uwtable
define internal i64 @HeapTupleGetDatum(ptr noundef %0) #2 {
  %2 = alloca ptr, align 8
  store ptr %0, ptr %2, align 8
  %3 = load ptr, ptr %2, align 8
  %4 = getelementptr inbounds nuw %struct.HeapTupleData, ptr %3, i32 0, i32 3
  %5 = load ptr, ptr %4, align 8
  %6 = call i64 @HeapTupleHeaderGetDatum(ptr noundef %5)
  ret i64 %6
}

; Function Attrs: nounwind uwtable
define dso_local void @ExecEvalRow(ptr noundef %0, ptr noundef %1) #0 {
  %3 = alloca ptr, align 8
  %4 = alloca ptr, align 8
  %5 = alloca ptr, align 8
  store ptr %0, ptr %3, align 8
  store ptr %1, ptr %4, align 8
  call void @llvm.lifetime.start.p0(i64 8, ptr %5) #11
  %6 = load ptr, ptr %4, align 8
  %7 = getelementptr inbounds nuw %struct.ExprEvalStep, ptr %6, i32 0, i32 3
  %8 = getelementptr inbounds nuw %struct.anon.20, ptr %7, i32 0, i32 0
  %9 = load ptr, ptr %8, align 8
  %10 = load ptr, ptr %4, align 8
  %11 = getelementptr inbounds nuw %struct.ExprEvalStep, ptr %10, i32 0, i32 3
  %12 = getelementptr inbounds nuw %struct.anon.20, ptr %11, i32 0, i32 1
  %13 = load ptr, ptr %12, align 8
  %14 = load ptr, ptr %4, align 8
  %15 = getelementptr inbounds nuw %struct.ExprEvalStep, ptr %14, i32 0, i32 3
  %16 = getelementptr inbounds nuw %struct.anon.20, ptr %15, i32 0, i32 2
  %17 = load ptr, ptr %16, align 8
  %18 = call ptr @heap_form_tuple(ptr noundef %9, ptr noundef %13, ptr noundef %17)
  store ptr %18, ptr %5, align 8
  %19 = load ptr, ptr %5, align 8
  %20 = call i64 @HeapTupleGetDatum(ptr noundef %19)
  %21 = load ptr, ptr %4, align 8
  %22 = getelementptr inbounds nuw %struct.ExprEvalStep, ptr %21, i32 0, i32 1
  %23 = load ptr, ptr %22, align 8
  store i64 %20, ptr %23, align 8
  %24 = load ptr, ptr %4, align 8
  %25 = getelementptr inbounds nuw %struct.ExprEvalStep, ptr %24, i32 0, i32 2
  %26 = load ptr, ptr %25, align 8
  store i8 0, ptr %26, align 1
  call void @llvm.lifetime.end.p0(i64 8, ptr %5) #11
  ret void
}